; Function Attrs: mustprogress nofree norecurse nosync nounwind willreturn memory(argmem: read) uwtable
define noundef double @_ZNK32pxrInternal_v0_24__pxrReserved__10GfMatrix4f14GetDeterminantEv(ptr noundef nonnull readonly align 4 captures(none) dereferenceable(64) %0) local_unnamed_addr #6 align 2 {
  %2 = getelementptr inbounds nuw i8, ptr %0, i64 12
  %3 = load float, ptr %2, align 4
  %4 = fneg float %3
  %5 = fpext float %4 to double
  %6 = getelementptr inbounds nuw i8, ptr %0, i64 16
  %7 = load float, ptr %6, align 4
  %8 = getelementptr inbounds nuw i8, ptr %0, i64 32
  %9 = getelementptr inbounds nuw i8, ptr %0, i64 36
  %10 = load float, ptr %9, align 4
  %11 = fmul float %7, %10
  %12 = getelementptr inbounds nuw i8, ptr %0, i64 48
  %13 = getelementptr inbounds nuw i8, ptr %0, i64 56
  %14 = load float, ptr %13, align 4
  %15 = getelementptr inbounds nuw i8, ptr %0, i64 20
  %16 = load float, ptr %15, align 4
  %17 = getelementptr inbounds nuw i8, ptr %0, i64 40
  %18 = load float, ptr %17, align 4
  %19 = fmul float %16, %18
  %20 = load float, ptr %12, align 4
  %21 = fmul float %19, %20
  %22 = tail call float @llvm.fmuladd.f32(float %11, float %14, float %21)
  %23 = getelementptr inbounds nuw i8, ptr %0, i64 24
  %24 = load float, ptr %23, align 4
  %25 = load float, ptr %8, align 4
  %26 = fmul float %24, %25
  %27 = getelementptr inbounds nuw i8, ptr %0, i64 52
  %28 = load float, ptr %27, align 4
  %29 = tail call float @llvm.fmuladd.f32(float %26, float %28, float %22)
  %30 = fneg float %18
  %31 = fmul float %7, %30
  %32 = tail call float @llvm.fmuladd.f32(float %31, float %28, float %29)
  %33 = fneg float %25
  %34 = fmul float %16, %33
  %35 = tail call float @llvm.fmuladd.f32(float %34, float %14, float %32)
  %36 = fneg float %10
  %37 = fmul float %24, %36
  %38 = tail call float @llvm.fmuladd.f32(float %37, float %20, float %35)
  %39 = fpext float %38 to double
  %40 = getelementptr inbounds nuw i8, ptr %0, i64 28
  %41 = load float, ptr %40, align 4
  %42 = fpext float %41 to double
  %43 = load float, ptr %0, align 4
  %44 = fmul float %10, %43
  %45 = getelementptr inbounds nuw i8, ptr %0, i64 4
  %46 = load float, ptr %45, align 4
  %47 = fmul float %18, %46
  %48 = fmul float %20, %47
  %49 = tail call float @llvm.fmuladd.f32(float %44, float %14, float %48)
  %50 = getelementptr inbounds nuw i8, ptr %0, i64 8
  %51 = load float, ptr %50, align 4
  %52 = fmul float %25, %51
  %53 = tail call float @llvm.fmuladd.f32(float %52, float %28, float %49)
  %54 = fmul float %43, %30
  %55 = tail call float @llvm.fmuladd.f32(float %54, float %28, float %53)
  %56 = fmul float %46, %33
  %57 = tail call float @llvm.fmuladd.f32(float %56, float %14, float %55)
  %58 = fmul float %51, %36
  %59 = tail call float @llvm.fmuladd.f32(float %58, float %20, float %57)
  %60 = fpext float %59 to double
  %61 = fmul double %42, %60
  %62 = tail call double @llvm.fmuladd.f64(double %5, double %39, double %61)
  %63 = getelementptr inbounds nuw i8, ptr %0, i64 44
  %64 = load float, ptr %63, align 4
  %65 = fpext float %64 to double
  %66 = fmul float %16, %43
  %67 = fmul float %24, %46
  %68 = fmul float %20, %67
  %69 = tail call float @llvm.fmuladd.f32(float %66, float %14, float %68)
  %70 = fmul float %7, %51
  %71 = tail call float @llvm.fmuladd.f32(float %70, float %28, float %69)
  %72 = fneg float %24
  %73 = fmul float %43, %72
  %74 = tail call float @llvm.fmuladd.f32(float %73, float %28, float %71)
  %75 = fneg float %7
  %76 = fmul float %46, %75
  %77 = tail call float @llvm.fmuladd.f32(float %76, float %14, float %74)
  %78 = fneg float %16
  %79 = fmul float %51, %78
  %80 = tail call float @llvm.fmuladd.f32(float %79, float %20, float %77)
  %81 = fpext float %80 to double
  %82 = fneg double %65
  %83 = tail call double @llvm.fmuladd.f64(double %82, double %81, double %62)
  %84 = getelementptr inbounds nuw i8, ptr %0, i64 60
  %85 = load float, ptr %84, align 4
  %86 = fpext float %85 to double
  %87 = fmul float %25, %67
  %88 = tail call float @llvm.fmuladd.f32(float %66, float %18, float %87)
  %89 = tail call float @llvm.fmuladd.f32(float %70, float %10, float %88)
  %90 = tail call float @llvm.fmuladd.f32(float %73, float %10, float %89)
  %91 = tail call float @llvm.fmuladd.f32(float %76, float %18, float %90)
  %92 = tail call float @llvm.fmuladd.f32(float %79, float %25, float %91)
  %93 = fpext float %92 to double
  %94 = tail call double @llvm.fmuladd.f64(double %86, double %93, double %83)
  ret double %94
}